; ModuleID = '26/182.c'
source_filename = "26/182.c"
target datalayout = "e-m:e-p270:32:32-p271:32:32-p272:64:64-i64:64-f80:128-n8:16:32:64-S128"
target triple = "x86_64-pc-linux-gnu"

; Function Attrs: noinline nounwind uwtable
define dso_local i32 @main() #0 {
  %1 = alloca i32, align 4
  %2 = alloca [101 x i8], align 16
  %3 = alloca i8*, align 8
  %4 = alloca i8*, align 8
  %5 = alloca i8*, align 8
  store i32 0, i32* %1, align 4
  %6 = getelementptr inbounds [101 x i8], [101 x i8]* %2, i64 0, i64 0
  %7 = call i32 (i8*, ...) bitcast (i32 (...)* @gets to i32 (i8*, ...)*)(i8* %6)
  %8 = getelementptr inbounds [101 x i8], [101 x i8]* %2, i64 0, i64 0
  store i8* %8, i8** %3, align 8
  store i8* null, i8** %4, align 8
  store i8* null, i8** %5, align 8
  br label %9

9:                                                ; preds = %66, %0
  %10 = load i8*, i8** %3, align 8
  %11 = getelementptr inbounds [101 x i8], [101 x i8]* %2, i64 0, i64 0
  %12 = call i64 @strlen(i8* %11) #3
  %13 = getelementptr inbounds [101 x i8], [101 x i8]* %2, i64 0, i64 0
  %14 = getelementptr inbounds i8, i8* %13, i64 %12
  %15 = icmp ult i8* %10, %14
  br i1 %15, label %16, label %69

16:                                               ; preds = %9
  %17 = load i8*, i8** %3, align 8
  %18 = load i8, i8* %17, align 1
  %19 = sext i8 %18 to i32
  %20 = icmp eq i32 %19, 32
  br i1 %20, label %21, label %29

21:                                               ; preds = %16
  %22 = load i8*, i8** %3, align 8
  %23 = getelementptr inbounds i8, i8* %22, i64 -1
  %24 = load i8, i8* %23, align 1
  %25 = sext i8 %24 to i32
  %26 = icmp ne i32 %25, 32
  br i1 %26, label %27, label %29

27:                                               ; preds = %21
  %28 = load i8*, i8** %3, align 8
  store i8* %28, i8** %4, align 8
  br label %29

29:                                               ; preds = %27, %21, %16
  %30 = load i8*, i8** %3, align 8
  %31 = getelementptr inbounds i8, i8* %30, i64 -1
  %32 = load i8, i8* %31, align 1
  %33 = sext i8 %32 to i32
  %34 = icmp eq i32 %33, 32
  br i1 %34, label %35, label %43

35:                                               ; preds = %29
  %36 = load i8*, i8** %3, align 8
  %37 = load i8, i8* %36, align 1
  %38 = sext i8 %37 to i32
  %39 = icmp ne i32 %38, 32
  br i1 %39, label %40, label %43

40:                                               ; preds = %35
  %41 = load i8*, i8** %3, align 8
  %42 = getelementptr inbounds i8, i8* %41, i64 -1
  store i8* %42, i8** %5, align 8
  br label %43

43:                                               ; preds = %40, %35, %29
  %44 = load i8*, i8** %5, align 8
  %45 = load i8*, i8** %4, align 8
  %46 = icmp ugt i8* %44, %45
  br i1 %46, label %47, label %65

47:                                               ; preds = %43
  %48 = load i8*, i8** %4, align 8
  store i8* %48, i8** %3, align 8
  br label %49

49:                                               ; preds = %56, %47
  %50 = load i8*, i8** %5, align 8
  %51 = getelementptr inbounds [101 x i8], [101 x i8]* %2, i64 0, i64 0
  %52 = getelementptr inbounds [101 x i8], [101 x i8]* %2, i64 0, i64 0
  %53 = call i64 @strlen(i8* %52) #3
  %54 = getelementptr inbounds i8, i8* %51, i64 %53
  %55 = icmp ult i8* %50, %54
  br i1 %55, label %56, label %64

56:                                               ; preds = %49
  %57 = load i8*, i8** %5, align 8
  %58 = getelementptr inbounds i8, i8* %57, i32 1
  store i8* %58, i8** %5, align 8
  %59 = getelementptr inbounds i8, i8* %57, i64 1
  %60 = load i8, i8* %59, align 1
  %61 = load i8*, i8** %4, align 8
  %62 = getelementptr inbounds i8, i8* %61, i32 1
  store i8* %62, i8** %4, align 8
  %63 = getelementptr inbounds i8, i8* %61, i64 1
  store i8 %60, i8* %63, align 1
  br label %49

64:                                               ; preds = %49
  br label %65

65:                                               ; preds = %64, %43
  br label %66

66:                                               ; preds = %65
  %67 = load i8*, i8** %3, align 8
  %68 = getelementptr inbounds i8, i8* %67, i32 1
  store i8* %68, i8** %3, align 8
  br label %9

69:                                               ; preds = %9
  %70 = getelementptr inbounds [101 x i8], [101 x i8]* %2, i64 0, i64 0
  %71 = call i32 (i8*, ...) @printf(i8* %70)
  %72 = load i32, i32* %1, align 4
  ret i32 %72
}

declare dso_local i32 @gets(...) #1

; Function Attrs: nounwind readonly
declare dso_local i64 @strlen(i8*) #2

declare dso_local i32 @printf(i8*, ...) #1


!llvm.module.flags = !{!0}
!llvm.ident = !{!1}

!0 = !{i32 1, !"wchar_size", i32 4}
!1 = !{!"clang version 10.0.0-4ubuntu1 "}
